; Function Attrs: mustprogress uwtable
define void @_Z28_gmx_sel_init_const_positionfffPv(ptr dead_on_unwind noalias writable sret(%"class.std::shared_ptr.0") align 8 %0, float noundef %1, float noundef %2, float noundef %3, ptr noundef %4) local_unnamed_addr #0 personality ptr @__gxx_personality_v0 {
  %6 = alloca [3 x float], align 4
  call void @llvm.lifetime.start.p0(i64 12, ptr nonnull %6) #24
  store float %1, ptr %6, align 4, !tbaa !129
  %7 = getelementptr inbounds nuw i8, ptr %6, i64 4
  store float %2, ptr %7, align 4, !tbaa !129
  %8 = getelementptr inbounds nuw i8, ptr %6, i64 8
  store float %3, ptr %8, align 4, !tbaa !129
  %9 = tail call noalias noundef nonnull dereferenceable(168) ptr @_Znwm(i64 noundef 168) #28
  %10 = invoke noundef nonnull align 4 dereferenceable(8) ptr @_Z35_gmx_sel_lexer_get_current_locationPv(ptr noundef %4)
          to label %11 unwind label %21

11:                                               ; preds = %5
  invoke void @_ZN3gmx20SelectionTreeElementC1E11e_selelem_tRKNS_17SelectionLocationE(ptr noundef nonnull align 8 dereferenceable(168) %9, i32 noundef 0, ptr noundef nonnull align 4 dereferenceable(8) %10)
          to label %12 unwind label %21

12:                                               ; preds = %11
  store ptr %9, ptr %0, align 8, !tbaa !30
  %13 = getelementptr inbounds nuw i8, ptr %0, i64 8
  tail call void @_ZNSt14__shared_countILN9__gnu_cxx12_Lock_policyE2EEC2IPN3gmx20SelectionTreeElementEEET_(ptr noundef nonnull align 8 dereferenceable(8) %13, ptr noundef nonnull %9)
  invoke void @_Z22_gmx_selelem_set_vtypeRKSt10shared_ptrIN3gmx20SelectionTreeElementEE12e_selvalue_t(ptr noundef nonnull align 8 dereferenceable(16) %0, i32 noundef 4)
          to label %14 unwind label %23

14:                                               ; preds = %12
  %15 = load ptr, ptr %0, align 8, !tbaa !30
  %16 = getelementptr inbounds nuw i8, ptr %15, i64 8
  invoke void @_Z21_gmx_selvalue_reserveP18gmx_ana_selvalue_ti(ptr noundef nonnull %16, i32 noundef 1)
          to label %17 unwind label %23

17:                                               ; preds = %14
  %18 = load ptr, ptr %0, align 8, !tbaa !30
  %19 = getelementptr inbounds nuw i8, ptr %18, i64 16
  %20 = load ptr, ptr %19, align 8, !tbaa !16
  invoke void @_Z22gmx_ana_pos_init_constP13gmx_ana_pos_tPKf(ptr noundef %20, ptr noundef nonnull %6)
          to label %25 unwind label %23

21:                                               ; preds = %11, %5
  %22 = landingpad { ptr, i32 }
          cleanup
  tail call void @_ZdlPvm(ptr noundef nonnull %9, i64 noundef 168) #25
  br label %26

23:                                               ; preds = %17, %14, %12
  %24 = landingpad { ptr, i32 }
          cleanup
  call void @_ZNSt12__shared_ptrIN3gmx20SelectionTreeElementELN9__gnu_cxx12_Lock_policyE2EED2Ev(ptr noundef nonnull align 8 dereferenceable(16) %0) #24
  br label %26

25:                                               ; preds = %17
  call void @llvm.lifetime.end.p0(i64 12, ptr nonnull %6) #24
  ret void

26:                                               ; preds = %23, %21
  %.pn = phi { ptr, i32 } [ %24, %23 ], [ %22, %21 ]
  call void @llvm.lifetime.end.p0(i64 12, ptr nonnull %6) #24
  resume { ptr, i32 } %.pn
}